target datalayout = "e-m:e-p270:32:32-p271:32:32-p272:64:64-i64:64-i128:128-f80:128-n8:16:32:64-S128"
target triple = "x86_64-pc-linux-gnu"

%struct.tm = type { i32, i32, i32, i32, i32, i32, i32, i32, i32, i64, ptr }

; Function Attrs: nounwind uwtable
define ptr @PGTYPESdate_to_asc(i64 noundef %0) #0 {
  %2 = alloca i64, align 8
  %3 = alloca %struct.tm, align 8
  %4 = alloca ptr, align 8
  %5 = alloca [129 x i8], align 16
  %6 = alloca i32, align 4
  %7 = alloca i8, align 1
  store i64 %0, ptr %2, align 8
  call void @llvm.lifetime.start.p0(i64 56, ptr %3) #7
  call void @llvm.lifetime.start.p0(i64 8, ptr %4) #7
  store ptr %3, ptr %4, align 8
  call void @llvm.lifetime.start.p0(i64 129, ptr %5) #7
  call void @llvm.lifetime.start.p0(i64 4, ptr %6) #7
  store i32 1, ptr %6, align 4
  call void @llvm.lifetime.start.p0(i64 1, ptr %7) #7
  store i8 0, ptr %7, align 1
  %8 = load i64, ptr %2, align 8
  %9 = call i32 @date2j(i32 noundef 2000, i32 noundef 1, i32 noundef 1)
  %10 = sext i32 %9 to i64
  %11 = add i64 %8, %10
  %12 = trunc i64 %11 to i32
  %13 = load ptr, ptr %4, align 8
  %14 = getelementptr inbounds nuw %struct.tm, ptr %13, i32 0, i32 5
  %15 = load ptr, ptr %4, align 8
  %16 = getelementptr inbounds nuw %struct.tm, ptr %15, i32 0, i32 4
  %17 = load ptr, ptr %4, align 8
  %18 = getelementptr inbounds nuw %struct.tm, ptr %17, i32 0, i32 3
  call void @j2date(i32 noundef %12, ptr noundef %14, ptr noundef %16, ptr noundef %18)
  %19 = load ptr, ptr %4, align 8
  %20 = load i32, ptr %6, align 4
  %21 = getelementptr inbounds [129 x i8], ptr %5, i64 0, i64 0
  %22 = load i8, ptr %7, align 1, !range !3, !noundef !4
  %23 = trunc i8 %22 to i1
  call void @EncodeDateOnly(ptr noundef %19, i32 noundef %20, ptr noundef %21, i1 noundef zeroext %23)
  %24 = getelementptr inbounds [129 x i8], ptr %5, i64 0, i64 0
  %25 = call ptr @pgtypes_strdup(ptr noundef %24)
  call void @llvm.lifetime.end.p0(i64 1, ptr %7) #7
  call void @llvm.lifetime.end.p0(i64 4, ptr %6) #7
  call void @llvm.lifetime.end.p0(i64 129, ptr %5) #7
  call void @llvm.lifetime.end.p0(i64 8, ptr %4) #7
  call void @llvm.lifetime.end.p0(i64 56, ptr %3) #7
  ret ptr %25
}