; Function Attrs: nounwind uwtable
define ptr @PGTYPESdate_to_asc(i64 noundef %0) local_unnamed_addr #0 {
  %2 = alloca %struct.tm, align 8
  %3 = alloca [129 x i8], align 16
  call void @llvm.lifetime.start.p0(i64 56, ptr nonnull %2) #12
  call void @llvm.lifetime.start.p0(i64 129, ptr nonnull %3) #12
  %4 = tail call i32 @date2j(i32 noundef 2000, i32 noundef 1, i32 noundef 1) #12
  %5 = trunc i64 %0 to i32
  %6 = add i32 %4, %5
  %7 = getelementptr inbounds nuw i8, ptr %2, i64 20
  %8 = getelementptr inbounds nuw i8, ptr %2, i64 16
  %9 = getelementptr inbounds nuw i8, ptr %2, i64 12
  call void @j2date(i32 noundef %6, ptr noundef nonnull %7, ptr noundef nonnull %8, ptr noundef nonnull %9) #12
  call void @EncodeDateOnly(ptr noundef nonnull %2, i32 noundef 1, ptr noundef nonnull %3, i1 noundef zeroext false) #12
  %10 = call ptr @pgtypes_strdup(ptr noundef nonnull %3) #12
  call void @llvm.lifetime.end.p0(i64 129, ptr nonnull %3) #12
  call void @llvm.lifetime.end.p0(i64 56, ptr nonnull %2) #12
  ret ptr %10
}